; Function Attrs: nounwind uwtable
define internal fastcc noundef ptr @uriParseZeroMoreSlashSegsA(ptr noundef nonnull captures(none) %0, ptr noundef nonnull %1, ptr noundef nonnull %2, ptr noundef %3) unnamed_addr #0 {
  %.not31 = icmp ult ptr %1, %2
  br i1 %.not31, label %.lr.ph, label %.loopexit

.lr.ph:                                           ; preds = %4
  %5 = getelementptr inbounds nuw i8, ptr %3, i64 8
  %6 = load ptr, ptr @uriSafeToPointToA, align 8
  br label %7

7:                                                ; preds = %.lr.ph, %tailrecurse
  %.tr2832 = phi ptr [ %1, %.lr.ph ], [ %11, %tailrecurse ]
  %8 = load i8, ptr %.tr2832, align 1, !tbaa !11
  %cond = icmp eq i8 %8, 47
  br i1 %cond, label %9, label %.loopexit

9:                                                ; preds = %7
  %10 = getelementptr inbounds nuw i8, ptr %.tr2832, i64 1
  %11 = tail call fastcc ptr @uriParseSegmentA(ptr noundef %0, ptr noundef %10, ptr noundef %2, ptr noundef %3)
  %12 = icmp eq ptr %11, null
  br i1 %12, label %.loopexit, label %13

13:                                               ; preds = %9
  %14 = load ptr, ptr %5, align 8, !tbaa !19
  %15 = tail call ptr %14(ptr noundef %3, i64 noundef 1, i64 noundef 32) #7
  %16 = icmp eq ptr %15, null
  br i1 %16, label %uriPushPathSegmentA.exit, label %17

17:                                               ; preds = %13
  %18 = icmp eq ptr %10, %11
  %spec.select.i = select i1 %18, ptr %6, ptr %10
  %spec.select24.i = select i1 %18, ptr %6, ptr %11
  store ptr %spec.select.i, ptr %15, align 8, !tbaa !21
  %19 = getelementptr inbounds nuw i8, ptr %15, i64 8
  store ptr %spec.select24.i, ptr %19, align 8, !tbaa !23
  %20 = load ptr, ptr %0, align 8, !tbaa !3
  %21 = getelementptr inbounds nuw i8, ptr %20, i64 96
  %22 = load ptr, ptr %21, align 8, !tbaa !24
  %23 = icmp eq ptr %22, null
  br i1 %23, label %24, label %26

24:                                               ; preds = %17
  store ptr %15, ptr %21, align 8, !tbaa !24
  %25 = getelementptr inbounds nuw i8, ptr %20, i64 104
  store ptr %15, ptr %25, align 8, !tbaa !25
  br label %tailrecurse

26:                                               ; preds = %17
  %27 = getelementptr inbounds nuw i8, ptr %20, i64 104
  %28 = load ptr, ptr %27, align 8, !tbaa !25
  %29 = getelementptr inbounds nuw i8, ptr %28, i64 16
  store ptr %15, ptr %29, align 8, !tbaa !26
  store ptr %15, ptr %27, align 8, !tbaa !25
  br label %tailrecurse

uriPushPathSegmentA.exit:                         ; preds = %13
  %30 = load ptr, ptr %0, align 8, !tbaa !3
  %31 = tail call i32 @uriFreeUriMembersMmA(ptr noundef %30, ptr noundef nonnull %3)
  %32 = getelementptr inbounds nuw i8, ptr %0, i64 16
  store ptr null, ptr %32, align 8, !tbaa !28
  %33 = getelementptr inbounds nuw i8, ptr %0, i64 8
  store i32 3, ptr %33, align 8, !tbaa !29
  br label %.loopexit

tailrecurse:                                      ; preds = %26, %24
  %.not = icmp ult ptr %11, %2
  br i1 %.not, label %7, label %.loopexit

.loopexit:                                        ; preds = %tailrecurse, %9, %7, %4, %uriPushPathSegmentA.exit
  %.0 = phi ptr [ null, %uriPushPathSegmentA.exit ], [ %2, %4 ], [ %2, %tailrecurse ], [ null, %9 ], [ %.tr2832, %7 ]
  ret ptr %.0
}